ARM GAS  C:\Users\LENOVO\AppData\Local\Temp\ccM8K69N.s 			page 1


   1              		.syntax unified
   2              		.cpu cortex-m3
   3              		.fpu softvfp
   4              		.eabi_attribute 20, 1
   5              		.eabi_attribute 21, 1
   6              		.eabi_attribute 23, 3
   7              		.eabi_attribute 24, 1
   8              		.eabi_attribute 25, 1
   9              		.eabi_attribute 26, 1
  10              		.eabi_attribute 30, 1
  11              		.eabi_attribute 34, 1
  12              		.eabi_attribute 18, 4
  13              		.thumb
  14              		.file	"Right_Eyeball_PM.c"
  15              		.text
  16              	.Ltext0:
  17              		.cfi_sections	.debug_frame
  18              		.section	.text.Right_Eyeball_SaveConfig,"ax",%progbits
  19              		.align	2
  20              		.global	Right_Eyeball_SaveConfig
  21              		.thumb
  22              		.thumb_func
  23              		.type	Right_Eyeball_SaveConfig, %function
  24              	Right_Eyeball_SaveConfig:
  25              	.LFB0:
  26              		.file 1 "Generated_Source\\PSoC5\\Right_Eyeball_PM.c"
   1:Generated_Source\PSoC5/Right_Eyeball_PM.c **** /*******************************************************************************
   2:Generated_Source\PSoC5/Right_Eyeball_PM.c **** * File Name: Right_Eyeball_PM.c
   3:Generated_Source\PSoC5/Right_Eyeball_PM.c **** * Version 3.30
   4:Generated_Source\PSoC5/Right_Eyeball_PM.c **** *
   5:Generated_Source\PSoC5/Right_Eyeball_PM.c **** * Description:
   6:Generated_Source\PSoC5/Right_Eyeball_PM.c **** *  This file provides the power management source code to API for the
   7:Generated_Source\PSoC5/Right_Eyeball_PM.c **** *  PWM.
   8:Generated_Source\PSoC5/Right_Eyeball_PM.c **** *
   9:Generated_Source\PSoC5/Right_Eyeball_PM.c **** * Note:
  10:Generated_Source\PSoC5/Right_Eyeball_PM.c **** *
  11:Generated_Source\PSoC5/Right_Eyeball_PM.c **** ********************************************************************************
  12:Generated_Source\PSoC5/Right_Eyeball_PM.c **** * Copyright 2008-2014, Cypress Semiconductor Corporation.  All rights reserved.
  13:Generated_Source\PSoC5/Right_Eyeball_PM.c **** * You may use this file only in accordance with the license, terms, conditions,
  14:Generated_Source\PSoC5/Right_Eyeball_PM.c **** * disclaimers, and limitations in the end user license agreement accompanying
  15:Generated_Source\PSoC5/Right_Eyeball_PM.c **** * the software package with which this file was provided.
  16:Generated_Source\PSoC5/Right_Eyeball_PM.c **** *******************************************************************************/
  17:Generated_Source\PSoC5/Right_Eyeball_PM.c **** 
  18:Generated_Source\PSoC5/Right_Eyeball_PM.c **** #include "Right_Eyeball.h"
  19:Generated_Source\PSoC5/Right_Eyeball_PM.c **** 
  20:Generated_Source\PSoC5/Right_Eyeball_PM.c **** static Right_Eyeball_backupStruct Right_Eyeball_backup;
  21:Generated_Source\PSoC5/Right_Eyeball_PM.c **** 
  22:Generated_Source\PSoC5/Right_Eyeball_PM.c **** 
  23:Generated_Source\PSoC5/Right_Eyeball_PM.c **** /*******************************************************************************
  24:Generated_Source\PSoC5/Right_Eyeball_PM.c **** * Function Name: Right_Eyeball_SaveConfig
  25:Generated_Source\PSoC5/Right_Eyeball_PM.c **** ********************************************************************************
  26:Generated_Source\PSoC5/Right_Eyeball_PM.c **** *
  27:Generated_Source\PSoC5/Right_Eyeball_PM.c **** * Summary:
  28:Generated_Source\PSoC5/Right_Eyeball_PM.c **** *  Saves the current user configuration of the component.
  29:Generated_Source\PSoC5/Right_Eyeball_PM.c **** *
  30:Generated_Source\PSoC5/Right_Eyeball_PM.c **** * Parameters:
  31:Generated_Source\PSoC5/Right_Eyeball_PM.c **** *  None
ARM GAS  C:\Users\LENOVO\AppData\Local\Temp\ccM8K69N.s 			page 2


  32:Generated_Source\PSoC5/Right_Eyeball_PM.c **** *
  33:Generated_Source\PSoC5/Right_Eyeball_PM.c **** * Return:
  34:Generated_Source\PSoC5/Right_Eyeball_PM.c **** *  None
  35:Generated_Source\PSoC5/Right_Eyeball_PM.c **** *
  36:Generated_Source\PSoC5/Right_Eyeball_PM.c **** * Global variables:
  37:Generated_Source\PSoC5/Right_Eyeball_PM.c **** *  Right_Eyeball_backup:  Variables of this global structure are modified to
  38:Generated_Source\PSoC5/Right_Eyeball_PM.c **** *  store the values of non retention configuration registers when Sleep() API is
  39:Generated_Source\PSoC5/Right_Eyeball_PM.c **** *  called.
  40:Generated_Source\PSoC5/Right_Eyeball_PM.c **** *
  41:Generated_Source\PSoC5/Right_Eyeball_PM.c **** *******************************************************************************/
  42:Generated_Source\PSoC5/Right_Eyeball_PM.c **** void Right_Eyeball_SaveConfig(void) 
  43:Generated_Source\PSoC5/Right_Eyeball_PM.c **** {
  27              		.loc 1 43 0
  28              		.cfi_startproc
  29              		@ args = 0, pretend = 0, frame = 0
  30              		@ frame_needed = 0, uses_anonymous_args = 0
  31 0000 10B5     		push	{r4, lr}
  32              		.cfi_def_cfa_offset 8
  33              		.cfi_offset 4, -8
  34              		.cfi_offset 14, -4
  44:Generated_Source\PSoC5/Right_Eyeball_PM.c **** 
  45:Generated_Source\PSoC5/Right_Eyeball_PM.c ****     #if(!Right_Eyeball_UsingFixedFunction)
  46:Generated_Source\PSoC5/Right_Eyeball_PM.c ****         #if(!Right_Eyeball_PWMModeIsCenterAligned)
  47:Generated_Source\PSoC5/Right_Eyeball_PM.c ****             Right_Eyeball_backup.PWMPeriod = Right_Eyeball_ReadPeriod();
  35              		.loc 1 47 0
  36 0002 FFF7FEFF 		bl	Right_Eyeball_ReadPeriod
  37              	.LVL0:
  38 0006 064C     		ldr	r4, .L3
  39 0008 A080     		strh	r0, [r4, #4]	@ movhi
  48:Generated_Source\PSoC5/Right_Eyeball_PM.c ****         #endif /* (!Right_Eyeball_PWMModeIsCenterAligned) */
  49:Generated_Source\PSoC5/Right_Eyeball_PM.c ****         Right_Eyeball_backup.PWMUdb = Right_Eyeball_ReadCounter();
  40              		.loc 1 49 0
  41 000a FFF7FEFF 		bl	Right_Eyeball_ReadCounter
  42              	.LVL1:
  43 000e 6080     		strh	r0, [r4, #2]	@ movhi
  50:Generated_Source\PSoC5/Right_Eyeball_PM.c ****         #if (Right_Eyeball_UseStatus)
  51:Generated_Source\PSoC5/Right_Eyeball_PM.c ****             Right_Eyeball_backup.InterruptMaskValue = Right_Eyeball_STATUS_MASK;
  44              		.loc 1 51 0
  45 0010 044B     		ldr	r3, .L3+4
  46 0012 1B78     		ldrb	r3, [r3]	@ zero_extendqisi2
  47 0014 A371     		strb	r3, [r4, #6]
  52:Generated_Source\PSoC5/Right_Eyeball_PM.c ****         #endif /* (Right_Eyeball_UseStatus) */
  53:Generated_Source\PSoC5/Right_Eyeball_PM.c **** 
  54:Generated_Source\PSoC5/Right_Eyeball_PM.c ****         #if(Right_Eyeball_DeadBandMode == Right_Eyeball__B_PWM__DBM_256_CLOCKS || \
  55:Generated_Source\PSoC5/Right_Eyeball_PM.c ****             Right_Eyeball_DeadBandMode == Right_Eyeball__B_PWM__DBM_2_4_CLOCKS)
  56:Generated_Source\PSoC5/Right_Eyeball_PM.c ****             Right_Eyeball_backup.PWMdeadBandValue = Right_Eyeball_ReadDeadTime();
  57:Generated_Source\PSoC5/Right_Eyeball_PM.c ****         #endif /*  deadband count is either 2-4 clocks or 256 clocks */
  58:Generated_Source\PSoC5/Right_Eyeball_PM.c **** 
  59:Generated_Source\PSoC5/Right_Eyeball_PM.c ****         #if(Right_Eyeball_KillModeMinTime)
  60:Generated_Source\PSoC5/Right_Eyeball_PM.c ****              Right_Eyeball_backup.PWMKillCounterPeriod = Right_Eyeball_ReadKillTime();
  61:Generated_Source\PSoC5/Right_Eyeball_PM.c ****         #endif /* (Right_Eyeball_KillModeMinTime) */
  62:Generated_Source\PSoC5/Right_Eyeball_PM.c **** 
  63:Generated_Source\PSoC5/Right_Eyeball_PM.c ****         #if(Right_Eyeball_UseControl)
  64:Generated_Source\PSoC5/Right_Eyeball_PM.c ****             Right_Eyeball_backup.PWMControlRegister = Right_Eyeball_ReadControlRegister();
  48              		.loc 1 64 0
  49 0016 FFF7FEFF 		bl	Right_Eyeball_ReadControlRegister
  50              	.LVL2:
ARM GAS  C:\Users\LENOVO\AppData\Local\Temp\ccM8K69N.s 			page 3


  51 001a E071     		strb	r0, [r4, #7]
  52 001c 10BD     		pop	{r4, pc}
  53              	.L4:
  54 001e 00BF     		.align	2
  55              	.L3:
  56 0020 00000000 		.word	.LANCHOR0
  57 0024 89650040 		.word	1073767817
  58              		.cfi_endproc
  59              	.LFE0:
  60              		.size	Right_Eyeball_SaveConfig, .-Right_Eyeball_SaveConfig
  61              		.section	.text.Right_Eyeball_RestoreConfig,"ax",%progbits
  62              		.align	2
  63              		.global	Right_Eyeball_RestoreConfig
  64              		.thumb
  65              		.thumb_func
  66              		.type	Right_Eyeball_RestoreConfig, %function
  67              	Right_Eyeball_RestoreConfig:
  68              	.LFB1:
  65:Generated_Source\PSoC5/Right_Eyeball_PM.c ****         #endif /* (Right_Eyeball_UseControl) */
  66:Generated_Source\PSoC5/Right_Eyeball_PM.c ****     #endif  /* (!Right_Eyeball_UsingFixedFunction) */
  67:Generated_Source\PSoC5/Right_Eyeball_PM.c **** }
  68:Generated_Source\PSoC5/Right_Eyeball_PM.c **** 
  69:Generated_Source\PSoC5/Right_Eyeball_PM.c **** 
  70:Generated_Source\PSoC5/Right_Eyeball_PM.c **** /*******************************************************************************
  71:Generated_Source\PSoC5/Right_Eyeball_PM.c **** * Function Name: Right_Eyeball_RestoreConfig
  72:Generated_Source\PSoC5/Right_Eyeball_PM.c **** ********************************************************************************
  73:Generated_Source\PSoC5/Right_Eyeball_PM.c **** *
  74:Generated_Source\PSoC5/Right_Eyeball_PM.c **** * Summary:
  75:Generated_Source\PSoC5/Right_Eyeball_PM.c **** *  Restores the current user configuration of the component.
  76:Generated_Source\PSoC5/Right_Eyeball_PM.c **** *
  77:Generated_Source\PSoC5/Right_Eyeball_PM.c **** * Parameters:
  78:Generated_Source\PSoC5/Right_Eyeball_PM.c **** *  None
  79:Generated_Source\PSoC5/Right_Eyeball_PM.c **** *
  80:Generated_Source\PSoC5/Right_Eyeball_PM.c **** * Return:
  81:Generated_Source\PSoC5/Right_Eyeball_PM.c **** *  None
  82:Generated_Source\PSoC5/Right_Eyeball_PM.c **** *
  83:Generated_Source\PSoC5/Right_Eyeball_PM.c **** * Global variables:
  84:Generated_Source\PSoC5/Right_Eyeball_PM.c **** *  Right_Eyeball_backup:  Variables of this global structure are used to
  85:Generated_Source\PSoC5/Right_Eyeball_PM.c **** *  restore the values of non retention registers on wakeup from sleep mode.
  86:Generated_Source\PSoC5/Right_Eyeball_PM.c **** *
  87:Generated_Source\PSoC5/Right_Eyeball_PM.c **** *******************************************************************************/
  88:Generated_Source\PSoC5/Right_Eyeball_PM.c **** void Right_Eyeball_RestoreConfig(void) 
  89:Generated_Source\PSoC5/Right_Eyeball_PM.c **** {
  69              		.loc 1 89 0
  70              		.cfi_startproc
  71              		@ args = 0, pretend = 0, frame = 0
  72              		@ frame_needed = 0, uses_anonymous_args = 0
  73 0000 10B5     		push	{r4, lr}
  74              		.cfi_def_cfa_offset 8
  75              		.cfi_offset 4, -8
  76              		.cfi_offset 14, -4
  90:Generated_Source\PSoC5/Right_Eyeball_PM.c ****         #if(!Right_Eyeball_UsingFixedFunction)
  91:Generated_Source\PSoC5/Right_Eyeball_PM.c ****             #if(!Right_Eyeball_PWMModeIsCenterAligned)
  92:Generated_Source\PSoC5/Right_Eyeball_PM.c ****                 Right_Eyeball_WritePeriod(Right_Eyeball_backup.PWMPeriod);
  77              		.loc 1 92 0
  78 0002 074C     		ldr	r4, .L7
  79 0004 A088     		ldrh	r0, [r4, #4]
ARM GAS  C:\Users\LENOVO\AppData\Local\Temp\ccM8K69N.s 			page 4


  80 0006 FFF7FEFF 		bl	Right_Eyeball_WritePeriod
  81              	.LVL3:
  93:Generated_Source\PSoC5/Right_Eyeball_PM.c ****             #endif /* (!Right_Eyeball_PWMModeIsCenterAligned) */
  94:Generated_Source\PSoC5/Right_Eyeball_PM.c **** 
  95:Generated_Source\PSoC5/Right_Eyeball_PM.c ****             Right_Eyeball_WriteCounter(Right_Eyeball_backup.PWMUdb);
  82              		.loc 1 95 0
  83 000a 6088     		ldrh	r0, [r4, #2]
  84 000c FFF7FEFF 		bl	Right_Eyeball_WriteCounter
  85              	.LVL4:
  96:Generated_Source\PSoC5/Right_Eyeball_PM.c **** 
  97:Generated_Source\PSoC5/Right_Eyeball_PM.c ****             #if (Right_Eyeball_UseStatus)
  98:Generated_Source\PSoC5/Right_Eyeball_PM.c ****                 Right_Eyeball_STATUS_MASK = Right_Eyeball_backup.InterruptMaskValue;
  86              		.loc 1 98 0
  87 0010 A279     		ldrb	r2, [r4, #6]	@ zero_extendqisi2
  88 0012 044B     		ldr	r3, .L7+4
  89 0014 1A70     		strb	r2, [r3]
  99:Generated_Source\PSoC5/Right_Eyeball_PM.c ****             #endif /* (Right_Eyeball_UseStatus) */
 100:Generated_Source\PSoC5/Right_Eyeball_PM.c **** 
 101:Generated_Source\PSoC5/Right_Eyeball_PM.c ****             #if(Right_Eyeball_DeadBandMode == Right_Eyeball__B_PWM__DBM_256_CLOCKS || \
 102:Generated_Source\PSoC5/Right_Eyeball_PM.c ****                 Right_Eyeball_DeadBandMode == Right_Eyeball__B_PWM__DBM_2_4_CLOCKS)
 103:Generated_Source\PSoC5/Right_Eyeball_PM.c ****                 Right_Eyeball_WriteDeadTime(Right_Eyeball_backup.PWMdeadBandValue);
 104:Generated_Source\PSoC5/Right_Eyeball_PM.c ****             #endif /* deadband count is either 2-4 clocks or 256 clocks */
 105:Generated_Source\PSoC5/Right_Eyeball_PM.c **** 
 106:Generated_Source\PSoC5/Right_Eyeball_PM.c ****             #if(Right_Eyeball_KillModeMinTime)
 107:Generated_Source\PSoC5/Right_Eyeball_PM.c ****                 Right_Eyeball_WriteKillTime(Right_Eyeball_backup.PWMKillCounterPeriod);
 108:Generated_Source\PSoC5/Right_Eyeball_PM.c ****             #endif /* (Right_Eyeball_KillModeMinTime) */
 109:Generated_Source\PSoC5/Right_Eyeball_PM.c **** 
 110:Generated_Source\PSoC5/Right_Eyeball_PM.c ****             #if(Right_Eyeball_UseControl)
 111:Generated_Source\PSoC5/Right_Eyeball_PM.c ****                 Right_Eyeball_WriteControlRegister(Right_Eyeball_backup.PWMControlRegister);
  90              		.loc 1 111 0
  91 0016 E079     		ldrb	r0, [r4, #7]	@ zero_extendqisi2
  92 0018 FFF7FEFF 		bl	Right_Eyeball_WriteControlRegister
  93              	.LVL5:
  94 001c 10BD     		pop	{r4, pc}
  95              	.L8:
  96 001e 00BF     		.align	2
  97              	.L7:
  98 0020 00000000 		.word	.LANCHOR0
  99 0024 89650040 		.word	1073767817
 100              		.cfi_endproc
 101              	.LFE1:
 102              		.size	Right_Eyeball_RestoreConfig, .-Right_Eyeball_RestoreConfig
 103              		.section	.text.Right_Eyeball_Sleep,"ax",%progbits
 104              		.align	2
 105              		.global	Right_Eyeball_Sleep
 106              		.thumb
 107              		.thumb_func
 108              		.type	Right_Eyeball_Sleep, %function
 109              	Right_Eyeball_Sleep:
 110              	.LFB2:
 112:Generated_Source\PSoC5/Right_Eyeball_PM.c ****             #endif /* (Right_Eyeball_UseControl) */
 113:Generated_Source\PSoC5/Right_Eyeball_PM.c ****         #endif  /* (!Right_Eyeball_UsingFixedFunction) */
 114:Generated_Source\PSoC5/Right_Eyeball_PM.c ****     }
 115:Generated_Source\PSoC5/Right_Eyeball_PM.c **** 
 116:Generated_Source\PSoC5/Right_Eyeball_PM.c **** 
 117:Generated_Source\PSoC5/Right_Eyeball_PM.c **** /*******************************************************************************
 118:Generated_Source\PSoC5/Right_Eyeball_PM.c **** * Function Name: Right_Eyeball_Sleep
ARM GAS  C:\Users\LENOVO\AppData\Local\Temp\ccM8K69N.s 			page 5


 119:Generated_Source\PSoC5/Right_Eyeball_PM.c **** ********************************************************************************
 120:Generated_Source\PSoC5/Right_Eyeball_PM.c **** *
 121:Generated_Source\PSoC5/Right_Eyeball_PM.c **** * Summary:
 122:Generated_Source\PSoC5/Right_Eyeball_PM.c **** *  Disables block's operation and saves the user configuration. Should be called
 123:Generated_Source\PSoC5/Right_Eyeball_PM.c **** *  just prior to entering sleep.
 124:Generated_Source\PSoC5/Right_Eyeball_PM.c **** *
 125:Generated_Source\PSoC5/Right_Eyeball_PM.c **** * Parameters:
 126:Generated_Source\PSoC5/Right_Eyeball_PM.c **** *  None
 127:Generated_Source\PSoC5/Right_Eyeball_PM.c **** *
 128:Generated_Source\PSoC5/Right_Eyeball_PM.c **** * Return:
 129:Generated_Source\PSoC5/Right_Eyeball_PM.c **** *  None
 130:Generated_Source\PSoC5/Right_Eyeball_PM.c **** *
 131:Generated_Source\PSoC5/Right_Eyeball_PM.c **** * Global variables:
 132:Generated_Source\PSoC5/Right_Eyeball_PM.c **** *  Right_Eyeball_backup.PWMEnableState:  Is modified depending on the enable
 133:Generated_Source\PSoC5/Right_Eyeball_PM.c **** *  state of the block before entering sleep mode.
 134:Generated_Source\PSoC5/Right_Eyeball_PM.c **** *
 135:Generated_Source\PSoC5/Right_Eyeball_PM.c **** *******************************************************************************/
 136:Generated_Source\PSoC5/Right_Eyeball_PM.c **** void Right_Eyeball_Sleep(void) 
 137:Generated_Source\PSoC5/Right_Eyeball_PM.c **** {
 111              		.loc 1 137 0
 112              		.cfi_startproc
 113              		@ args = 0, pretend = 0, frame = 0
 114              		@ frame_needed = 0, uses_anonymous_args = 0
 115 0000 08B5     		push	{r3, lr}
 116              		.cfi_def_cfa_offset 8
 117              		.cfi_offset 3, -8
 118              		.cfi_offset 14, -4
 138:Generated_Source\PSoC5/Right_Eyeball_PM.c ****     #if(Right_Eyeball_UseControl)
 139:Generated_Source\PSoC5/Right_Eyeball_PM.c ****         if(Right_Eyeball_CTRL_ENABLE == (Right_Eyeball_CONTROL & Right_Eyeball_CTRL_ENABLE))
 119              		.loc 1 139 0
 120 0002 084B     		ldr	r3, .L13
 121 0004 1B78     		ldrb	r3, [r3]	@ zero_extendqisi2
 122 0006 13F0800F 		tst	r3, #128
 123 000a 03D0     		beq	.L10
 140:Generated_Source\PSoC5/Right_Eyeball_PM.c ****         {
 141:Generated_Source\PSoC5/Right_Eyeball_PM.c ****             /*Component is enabled */
 142:Generated_Source\PSoC5/Right_Eyeball_PM.c ****             Right_Eyeball_backup.PWMEnableState = 1u;
 124              		.loc 1 142 0
 125 000c 0122     		movs	r2, #1
 126 000e 064B     		ldr	r3, .L13+4
 127 0010 1A70     		strb	r2, [r3]
 128 0012 02E0     		b	.L11
 129              	.L10:
 143:Generated_Source\PSoC5/Right_Eyeball_PM.c ****         }
 144:Generated_Source\PSoC5/Right_Eyeball_PM.c ****         else
 145:Generated_Source\PSoC5/Right_Eyeball_PM.c ****         {
 146:Generated_Source\PSoC5/Right_Eyeball_PM.c ****             /* Component is disabled */
 147:Generated_Source\PSoC5/Right_Eyeball_PM.c ****             Right_Eyeball_backup.PWMEnableState = 0u;
 130              		.loc 1 147 0
 131 0014 0022     		movs	r2, #0
 132 0016 044B     		ldr	r3, .L13+4
 133 0018 1A70     		strb	r2, [r3]
 134              	.L11:
 148:Generated_Source\PSoC5/Right_Eyeball_PM.c ****         }
 149:Generated_Source\PSoC5/Right_Eyeball_PM.c ****     #endif /* (Right_Eyeball_UseControl) */
 150:Generated_Source\PSoC5/Right_Eyeball_PM.c **** 
 151:Generated_Source\PSoC5/Right_Eyeball_PM.c ****     /* Stop component */
ARM GAS  C:\Users\LENOVO\AppData\Local\Temp\ccM8K69N.s 			page 6


 152:Generated_Source\PSoC5/Right_Eyeball_PM.c ****     Right_Eyeball_Stop();
 135              		.loc 1 152 0
 136 001a FFF7FEFF 		bl	Right_Eyeball_Stop
 137              	.LVL6:
 153:Generated_Source\PSoC5/Right_Eyeball_PM.c **** 
 154:Generated_Source\PSoC5/Right_Eyeball_PM.c ****     /* Save registers configuration */
 155:Generated_Source\PSoC5/Right_Eyeball_PM.c ****     Right_Eyeball_SaveConfig();
 138              		.loc 1 155 0
 139 001e FFF7FEFF 		bl	Right_Eyeball_SaveConfig
 140              	.LVL7:
 141 0022 08BD     		pop	{r3, pc}
 142              	.L14:
 143              		.align	2
 144              	.L13:
 145 0024 79650040 		.word	1073767801
 146 0028 00000000 		.word	.LANCHOR0
 147              		.cfi_endproc
 148              	.LFE2:
 149              		.size	Right_Eyeball_Sleep, .-Right_Eyeball_Sleep
 150              		.section	.text.Right_Eyeball_Wakeup,"ax",%progbits
 151              		.align	2
 152              		.global	Right_Eyeball_Wakeup
 153              		.thumb
 154              		.thumb_func
 155              		.type	Right_Eyeball_Wakeup, %function
 156              	Right_Eyeball_Wakeup:
 157              	.LFB3:
 156:Generated_Source\PSoC5/Right_Eyeball_PM.c **** }
 157:Generated_Source\PSoC5/Right_Eyeball_PM.c **** 
 158:Generated_Source\PSoC5/Right_Eyeball_PM.c **** 
 159:Generated_Source\PSoC5/Right_Eyeball_PM.c **** /*******************************************************************************
 160:Generated_Source\PSoC5/Right_Eyeball_PM.c **** * Function Name: Right_Eyeball_Wakeup
 161:Generated_Source\PSoC5/Right_Eyeball_PM.c **** ********************************************************************************
 162:Generated_Source\PSoC5/Right_Eyeball_PM.c **** *
 163:Generated_Source\PSoC5/Right_Eyeball_PM.c **** * Summary:
 164:Generated_Source\PSoC5/Right_Eyeball_PM.c **** *  Restores and enables the user configuration. Should be called just after
 165:Generated_Source\PSoC5/Right_Eyeball_PM.c **** *  awaking from sleep.
 166:Generated_Source\PSoC5/Right_Eyeball_PM.c **** *
 167:Generated_Source\PSoC5/Right_Eyeball_PM.c **** * Parameters:
 168:Generated_Source\PSoC5/Right_Eyeball_PM.c **** *  None
 169:Generated_Source\PSoC5/Right_Eyeball_PM.c **** *
 170:Generated_Source\PSoC5/Right_Eyeball_PM.c **** * Return:
 171:Generated_Source\PSoC5/Right_Eyeball_PM.c **** *  None
 172:Generated_Source\PSoC5/Right_Eyeball_PM.c **** *
 173:Generated_Source\PSoC5/Right_Eyeball_PM.c **** * Global variables:
 174:Generated_Source\PSoC5/Right_Eyeball_PM.c **** *  Right_Eyeball_backup.pwmEnable:  Is used to restore the enable state of
 175:Generated_Source\PSoC5/Right_Eyeball_PM.c **** *  block on wakeup from sleep mode.
 176:Generated_Source\PSoC5/Right_Eyeball_PM.c **** *
 177:Generated_Source\PSoC5/Right_Eyeball_PM.c **** *******************************************************************************/
 178:Generated_Source\PSoC5/Right_Eyeball_PM.c **** void Right_Eyeball_Wakeup(void) 
 179:Generated_Source\PSoC5/Right_Eyeball_PM.c **** {
 158              		.loc 1 179 0
 159              		.cfi_startproc
 160              		@ args = 0, pretend = 0, frame = 0
 161              		@ frame_needed = 0, uses_anonymous_args = 0
 162 0000 08B5     		push	{r3, lr}
 163              		.cfi_def_cfa_offset 8
ARM GAS  C:\Users\LENOVO\AppData\Local\Temp\ccM8K69N.s 			page 7


 164              		.cfi_offset 3, -8
 165              		.cfi_offset 14, -4
 180:Generated_Source\PSoC5/Right_Eyeball_PM.c ****      /* Restore registers values */
 181:Generated_Source\PSoC5/Right_Eyeball_PM.c ****     Right_Eyeball_RestoreConfig();
 166              		.loc 1 181 0
 167 0002 FFF7FEFF 		bl	Right_Eyeball_RestoreConfig
 168              	.LVL8:
 182:Generated_Source\PSoC5/Right_Eyeball_PM.c **** 
 183:Generated_Source\PSoC5/Right_Eyeball_PM.c ****     if(Right_Eyeball_backup.PWMEnableState != 0u)
 169              		.loc 1 183 0
 170 0006 034B     		ldr	r3, .L18
 171 0008 1B78     		ldrb	r3, [r3]	@ zero_extendqisi2
 172 000a 0BB1     		cbz	r3, .L15
 184:Generated_Source\PSoC5/Right_Eyeball_PM.c ****     {
 185:Generated_Source\PSoC5/Right_Eyeball_PM.c ****         /* Enable component's operation */
 186:Generated_Source\PSoC5/Right_Eyeball_PM.c ****         Right_Eyeball_Enable();
 173              		.loc 1 186 0
 174 000c FFF7FEFF 		bl	Right_Eyeball_Enable
 175              	.LVL9:
 176              	.L15:
 177 0010 08BD     		pop	{r3, pc}
 178              	.L19:
 179 0012 00BF     		.align	2
 180              	.L18:
 181 0014 00000000 		.word	.LANCHOR0
 182              		.cfi_endproc
 183              	.LFE3:
 184              		.size	Right_Eyeball_Wakeup, .-Right_Eyeball_Wakeup
 185              		.bss
 186              		.align	2
 187              		.set	.LANCHOR0,. + 0
 188              		.type	Right_Eyeball_backup, %object
 189              		.size	Right_Eyeball_backup, 8
 190              	Right_Eyeball_backup:
 191 0000 00000000 		.space	8
 191      00000000 
 192              		.text
 193              	.Letext0:
 194              		.file 2 "Generated_Source\\PSoC5\\cytypes.h"
 195              		.file 3 "Generated_Source\\PSoC5\\Right_Eyeball.h"